target datalayout = "e-m:e-p270:32:32-p271:32:32-p272:64:64-i64:64-i128:128-f80:128-n8:16:32:64-S128"
target triple = "x86_64-pc-linux-gnu"

%struct.expert_field = type { i32, i32 }
%struct._packet_info = type { ptr, ptr, i32, i32, %struct.nstime_t, %struct.nstime_t, %struct.nstime_t, i8, ptr, ptr, ptr, ptr, %struct._address, %struct._address, %struct._address, %struct._address, %struct._address, %struct._address, i32, ptr, i8, [3 x i8], %struct.anon, i32, i32, i32, i32, ptr, i8, ptr, ptr, i16, i16, i32, i32, i16, i32, i32, ptr, ptr, ptr, i8, i8, i16, i16, i16, i32, i16, i16, ptr, ptr, ptr, ptr, ptr, i32, i32 }
%struct.nstime_t = type { i64, i32 }
%struct._address = type { i32, i32, ptr, ptr }
%struct.anon = type { i8, [3 x i8] }

@hf_iso14443_sel = internal global i32 0, align 4
@hf_iso14443_nvb = internal global i32 0, align 4
@hf_iso14443_4_compl_sak = internal global i32 0, align 4
@hf_iso14443_uid_complete = internal global i32 0, align 4
@hf_iso14443_ct = internal global i32 0, align 4
@hf_iso14443_uid_cln = internal global i32 0, align 4
@hf_iso14443_bcc = internal global i32 0, align 4
@hf_iso14443_crc = internal global i32 0, align 4
@hf_iso14443_crc_status = internal global i32 0, align 4
@ei_iso14443_wrong_crc = internal global %struct.expert_field zeroinitializer, align 4
@.str.266 = private unnamed_addr constant [14 x i8] c"Anticollision\00", align 1
@.str.267 = private unnamed_addr constant [16 x i8] c": Anticollision\00", align 1
@.str.268 = private unnamed_addr constant [7 x i8] c"Select\00", align 1
@.str.269 = private unnamed_addr constant [9 x i8] c": Select\00", align 1
@.str.270 = private unnamed_addr constant [4 x i8] c"SAK\00", align 1
@.str.271 = private unnamed_addr constant [6 x i8] c": SAK\00", align 1
@.str.272 = private unnamed_addr constant [4 x i8] c"UID\00", align 1

; Function Attrs: null_pointer_is_valid sspstrong uwtable
define internal i32 @dissect_iso14443_uid_part(ptr noundef %0, i32 noundef %1, ptr noundef %2, ptr noundef %3) #0 {
  %5 = alloca ptr, align 8
  %6 = alloca i32, align 4
  %7 = alloca ptr, align 8
  %8 = alloca ptr, align 8
  %9 = alloca i8, align 1
  store ptr %0, ptr %5, align 8
  store i32 %1, ptr %6, align 4
  store ptr %2, ptr %7, align 8
  store ptr %3, ptr %8, align 8
  call void @llvm.lifetime.start.p0(i64 1, ptr %9) #5
  store i8 4, ptr %9, align 1
  %10 = load ptr, ptr %5, align 8
  %11 = load i32, ptr %6, align 4
  %12 = call zeroext i8 @tvb_get_uint8(ptr noundef %10, i32 noundef %11)
  %13 = zext i8 %12 to i32
  %14 = icmp eq i32 %13, 136
  br i1 %14, label %15, label %23

15:                                               ; preds = %4
  %16 = load ptr, ptr %8, align 8
  %17 = load i32, ptr @hf_iso14443_ct, align 4
  %18 = load ptr, ptr %5, align 8
  %19 = load i32, ptr %6, align 4
  %20 = call ptr @proto_tree_add_item(ptr noundef %16, i32 noundef %17, ptr noundef %18, i32 noundef %19, i32 noundef 1, i32 noundef 0)
  %21 = load i32, ptr %6, align 4
  %22 = add i32 %21, 1
  store i32 %22, ptr %6, align 4
  store i8 3, ptr %9, align 1
  br label %23

23:                                               ; preds = %15, %4
  %24 = load ptr, ptr %8, align 8
  %25 = load i32, ptr @hf_iso14443_uid_cln, align 4
  %26 = load ptr, ptr %5, align 8
  %27 = load i32, ptr %6, align 4
  %28 = load i8, ptr %9, align 1
  %29 = zext i8 %28 to i32
  %30 = call ptr @proto_tree_add_item(ptr noundef %24, i32 noundef %25, ptr noundef %26, i32 noundef %27, i32 noundef %29, i32 noundef 0)
  %31 = load i8, ptr %9, align 1
  %32 = zext i8 %31 to i32
  %33 = load i32, ptr %6, align 4
  %34 = add i32 %33, %32
  store i32 %34, ptr %6, align 4
  %35 = load ptr, ptr %8, align 8
  %36 = load i32, ptr @hf_iso14443_bcc, align 4
  %37 = load ptr, ptr %5, align 8
  %38 = load i32, ptr %6, align 4
  %39 = call ptr @proto_tree_add_item(ptr noundef %35, i32 noundef %36, ptr noundef %37, i32 noundef %38, i32 noundef 1, i32 noundef 0)
  %40 = load i32, ptr %6, align 4
  %41 = add i32 %40, 1
  store i32 %41, ptr %6, align 4
  %42 = load i32, ptr %6, align 4
  call void @llvm.lifetime.end.p0(i64 1, ptr %9) #5
  ret i32 %42
}

; Function Attrs: null_pointer_is_valid sspstrong uwtable
define internal i32 @dissect_iso14443_cmd_type_uid(ptr noundef %0, ptr noundef %1, ptr noundef %2, ptr noundef %3) #0 {
  %5 = alloca ptr, align 8
  %6 = alloca ptr, align 8
  %7 = alloca ptr, align 8
  %8 = alloca ptr, align 8
  %9 = alloca i8, align 1
  %10 = alloca ptr, align 8
  %11 = alloca i32, align 4
  store ptr %0, ptr %5, align 8
  store ptr %1, ptr %6, align 8
  store ptr %2, ptr %7, align 8
  store ptr %3, ptr %8, align 8
  call void @llvm.lifetime.start.p0(i64 1, ptr %9) #5
  %12 = load ptr, ptr %8, align 8
  %13 = ptrtoint ptr %12 to i64
  %14 = trunc i64 %13 to i32
  %15 = icmp ne i32 %14, 0
  %16 = zext i1 %15 to i8
  store i8 %16, ptr %9, align 1
  call void @llvm.lifetime.start.p0(i64 8, ptr %10) #5
  %17 = load ptr, ptr %7, align 8
  %18 = call ptr @proto_tree_get_parent(ptr noundef %17)
  store ptr %18, ptr %10, align 8
  call void @llvm.lifetime.start.p0(i64 4, ptr %11) #5
  store i32 0, ptr %11, align 4
  %19 = load ptr, ptr %6, align 8
  %20 = getelementptr inbounds nuw %struct._packet_info, ptr %19, i32 0, i32 37
  %21 = load i32, ptr %20, align 4
  %22 = icmp eq i32 %21, 0
  br i1 %22, label %23, label %75

23:                                               ; preds = %4
  %24 = load ptr, ptr %7, align 8
  %25 = load i32, ptr @hf_iso14443_sel, align 4
  %26 = load ptr, ptr %5, align 8
  %27 = load i32, ptr %11, align 4
  %28 = call ptr @proto_tree_add_item(ptr noundef %24, i32 noundef %25, ptr noundef %26, i32 noundef %27, i32 noundef 1, i32 noundef 0)
  %29 = load i32, ptr %11, align 4
  %30 = add i32 %29, 1
  store i32 %30, ptr %11, align 4
  %31 = load ptr, ptr %7, align 8
  %32 = load i32, ptr @hf_iso14443_nvb, align 4
  %33 = load ptr, ptr %5, align 8
  %34 = load i32, ptr %11, align 4
  %35 = call ptr @proto_tree_add_item(ptr noundef %31, i32 noundef %32, ptr noundef %33, i32 noundef %34, i32 noundef 1, i32 noundef 0)
  %36 = load i32, ptr %11, align 4
  %37 = add i32 %36, 1
  store i32 %37, ptr %11, align 4
  %38 = load ptr, ptr %5, align 8
  %39 = load i32, ptr %11, align 4
  %40 = call i32 @tvb_reported_length_remaining(ptr noundef %38, i32 noundef %39)
  %41 = icmp eq i32 %40, 0
  br i1 %41, label %42, label %47

42:                                               ; preds = %23
  %43 = load ptr, ptr %6, align 8
  %44 = getelementptr inbounds nuw %struct._packet_info, ptr %43, i32 0, i32 1
  %45 = load ptr, ptr %44, align 8
  call void @col_set_str(ptr noundef %45, i32 noundef 25, ptr noundef @.str.266)
  %46 = load ptr, ptr %10, align 8
  call void (ptr, ptr, ...) @proto_item_append_text(ptr noundef %46, ptr noundef @.str.267)
  br label %74

47:                                               ; preds = %23
  %48 = load ptr, ptr %6, align 8
  %49 = getelementptr inbounds nuw %struct._packet_info, ptr %48, i32 0, i32 1
  %50 = load ptr, ptr %49, align 8
  call void @col_set_str(ptr noundef %50, i32 noundef 25, ptr noundef @.str.268)
  %51 = load ptr, ptr %10, align 8
  call void (ptr, ptr, ...) @proto_item_append_text(ptr noundef %51, ptr noundef @.str.269)
  %52 = load ptr, ptr %5, align 8
  %53 = load i32, ptr %11, align 4
  %54 = load ptr, ptr %6, align 8
  %55 = load ptr, ptr %7, align 8
  %56 = call i32 @dissect_iso14443_uid_part(ptr noundef %52, i32 noundef %53, ptr noundef %54, ptr noundef %55)
  store i32 %56, ptr %11, align 4
  %57 = load i8, ptr %9, align 1, !range !6, !noundef !7
  %58 = trunc i8 %57 to i1
  br i1 %58, label %73, label %59

59:                                               ; preds = %47
  %60 = load ptr, ptr %7, align 8
  %61 = load ptr, ptr %5, align 8
  %62 = load i32, ptr %11, align 4
  %63 = load i32, ptr @hf_iso14443_crc, align 4
  %64 = load i32, ptr @hf_iso14443_crc_status, align 4
  %65 = load ptr, ptr %6, align 8
  %66 = load ptr, ptr %5, align 8
  %67 = load i32, ptr %11, align 4
  %68 = call zeroext i16 @crc16_iso14443a_tvb_offset(ptr noundef %66, i32 noundef 0, i32 noundef %67)
  %69 = zext i16 %68 to i32
  %70 = call ptr @proto_tree_add_checksum(ptr noundef %60, ptr noundef %61, i32 noundef %62, i32 noundef %63, i32 noundef %64, ptr noundef @ei_iso14443_wrong_crc, ptr noundef %65, i32 noundef %69, i32 noundef -2147483648, i32 noundef 1)
  %71 = load i32, ptr %11, align 4
  %72 = add i32 %71, 2
  store i32 %72, ptr %11, align 4
  br label %73

73:                                               ; preds = %59, %47
  br label %74

74:                                               ; preds = %73, %42
  br label %136

75:                                               ; preds = %4
  %76 = load ptr, ptr %6, align 8
  %77 = getelementptr inbounds nuw %struct._packet_info, ptr %76, i32 0, i32 37
  %78 = load i32, ptr %77, align 4
  %79 = icmp eq i32 %78, 1
  br i1 %79, label %80, label %135

80:                                               ; preds = %75
  %81 = load ptr, ptr %5, align 8
  %82 = load i32, ptr %11, align 4
  %83 = call i32 @tvb_reported_length_remaining(ptr noundef %81, i32 noundef %82)
  %84 = icmp sle i32 %83, 3
  br i1 %84, label %85, label %119

85:                                               ; preds = %80
  %86 = load ptr, ptr %6, align 8
  %87 = getelementptr inbounds nuw %struct._packet_info, ptr %86, i32 0, i32 1
  %88 = load ptr, ptr %87, align 8
  call void @col_set_str(ptr noundef %88, i32 noundef 25, ptr noundef @.str.270)
  %89 = load ptr, ptr %10, align 8
  call void (ptr, ptr, ...) @proto_item_append_text(ptr noundef %89, ptr noundef @.str.271)
  %90 = load ptr, ptr %7, align 8
  %91 = load i32, ptr @hf_iso14443_4_compl_sak, align 4
  %92 = load ptr, ptr %5, align 8
  %93 = load i32, ptr %11, align 4
  %94 = call ptr @proto_tree_add_item(ptr noundef %90, i32 noundef %91, ptr noundef %92, i32 noundef %93, i32 noundef 1, i32 noundef 0)
  %95 = load ptr, ptr %7, align 8
  %96 = load i32, ptr @hf_iso14443_uid_complete, align 4
  %97 = load ptr, ptr %5, align 8
  %98 = load i32, ptr %11, align 4
  %99 = call ptr @proto_tree_add_item(ptr noundef %95, i32 noundef %96, ptr noundef %97, i32 noundef %98, i32 noundef 1, i32 noundef 0)
  %100 = load i32, ptr %11, align 4
  %101 = add i32 %100, 1
  store i32 %101, ptr %11, align 4
  %102 = load i8, ptr %9, align 1, !range !6, !noundef !7
  %103 = trunc i8 %102 to i1
  br i1 %103, label %118, label %104

104:                                              ; preds = %85
  %105 = load ptr, ptr %7, align 8
  %106 = load ptr, ptr %5, align 8
  %107 = load i32, ptr %11, align 4
  %108 = load i32, ptr @hf_iso14443_crc, align 4
  %109 = load i32, ptr @hf_iso14443_crc_status, align 4
  %110 = load ptr, ptr %6, align 8
  %111 = load ptr, ptr %5, align 8
  %112 = load i32, ptr %11, align 4
  %113 = call zeroext i16 @crc16_iso14443a_tvb_offset(ptr noundef %111, i32 noundef 0, i32 noundef %112)
  %114 = zext i16 %113 to i32
  %115 = call ptr @proto_tree_add_checksum(ptr noundef %105, ptr noundef %106, i32 noundef %107, i32 noundef %108, i32 noundef %109, ptr noundef @ei_iso14443_wrong_crc, ptr noundef %110, i32 noundef %114, i32 noundef -2147483648, i32 noundef 1)
  %116 = load i32, ptr %11, align 4
  %117 = add i32 %116, 2
  store i32 %117, ptr %11, align 4
  br label %118

118:                                              ; preds = %104, %85
  br label %134

119:                                              ; preds = %80
  %120 = load ptr, ptr %5, align 8
  %121 = load i32, ptr %11, align 4
  %122 = call i32 @tvb_reported_length_remaining(ptr noundef %120, i32 noundef %121)
  %123 = icmp eq i32 %122, 5
  br i1 %123, label %124, label %133

124:                                              ; preds = %119
  %125 = load ptr, ptr %6, align 8
  %126 = getelementptr inbounds nuw %struct._packet_info, ptr %125, i32 0, i32 1
  %127 = load ptr, ptr %126, align 8
  call void @col_set_str(ptr noundef %127, i32 noundef 25, ptr noundef @.str.272)
  %128 = load ptr, ptr %5, align 8
  %129 = load i32, ptr %11, align 4
  %130 = load ptr, ptr %6, align 8
  %131 = load ptr, ptr %7, align 8
  %132 = call i32 @dissect_iso14443_uid_part(ptr noundef %128, i32 noundef %129, ptr noundef %130, ptr noundef %131)
  store i32 %132, ptr %11, align 4
  br label %133

133:                                              ; preds = %124, %119
  br label %134

134:                                              ; preds = %133, %118
  br label %135

135:                                              ; preds = %134, %75
  br label %136

136:                                              ; preds = %135, %74
  %137 = load i32, ptr %11, align 4
  call void @llvm.lifetime.end.p0(i64 4, ptr %11) #5
  call void @llvm.lifetime.end.p0(i64 8, ptr %10) #5
  call void @llvm.lifetime.end.p0(i64 1, ptr %9) #5
  ret i32 %137
}