; Function Attrs: null_pointer_is_valid sspstrong uwtable
define internal range(i32 0, 11) i32 @dissect_iso14443_cmd_type_uid(ptr noundef %0, ptr noundef %1, ptr noundef %2, ptr noundef %3) #0 {
  %5 = ptrtoint ptr %3 to i64
  %6 = and i64 %5, 4294967295
  %.not = icmp eq i64 %6, 0
  %7 = tail call ptr @proto_tree_get_parent(ptr noundef %2)
  %8 = getelementptr inbounds nuw i8, ptr %1, i64 348
  %9 = load i32, ptr %8, align 4
  switch i32 %9, label %72 [
    i32 0, label %10
    i32 1, label %39
  ]

10:                                               ; preds = %4
  %11 = load i32, ptr @hf_iso14443_sel, align 4
  %12 = tail call ptr @proto_tree_add_item(ptr noundef %2, i32 noundef %11, ptr noundef %0, i32 noundef 0, i32 noundef 1, i32 noundef 0)
  %13 = load i32, ptr @hf_iso14443_nvb, align 4
  %14 = tail call ptr @proto_tree_add_item(ptr noundef %2, i32 noundef %13, ptr noundef %0, i32 noundef 1, i32 noundef 1, i32 noundef 0)
  %15 = tail call i32 @tvb_reported_length_remaining(ptr noundef %0, i32 noundef 2)
  %16 = icmp eq i32 %15, 0
  %17 = getelementptr inbounds nuw i8, ptr %1, i64 8
  %18 = load ptr, ptr %17, align 8
  br i1 %16, label %19, label %20

19:                                               ; preds = %10
  tail call void @col_set_str(ptr noundef %18, i32 noundef 25, ptr noundef nonnull @.str.266)
  tail call void (ptr, ptr, ...) @proto_item_append_text(ptr noundef %7, ptr noundef nonnull @.str.267)
  br label %72

20:                                               ; preds = %10
  tail call void @col_set_str(ptr noundef %18, i32 noundef 25, ptr noundef nonnull @.str.268)
  tail call void (ptr, ptr, ...) @proto_item_append_text(ptr noundef %7, ptr noundef nonnull @.str.269)
  %21 = tail call zeroext i8 @tvb_get_uint8(ptr noundef %0, i32 noundef 2)
  %22 = icmp eq i8 %21, -120
  br i1 %22, label %23, label %dissect_iso14443_uid_part.exit

23:                                               ; preds = %20
  %24 = load i32, ptr @hf_iso14443_ct, align 4
  %25 = tail call ptr @proto_tree_add_item(ptr noundef %2, i32 noundef %24, ptr noundef %0, i32 noundef 2, i32 noundef 1, i32 noundef 0)
  br label %dissect_iso14443_uid_part.exit

dissect_iso14443_uid_part.exit:                   ; preds = %20, %23
  %.016.i = phi i32 [ 3, %23 ], [ 2, %20 ]
  %.0.i = phi i32 [ 3, %23 ], [ 4, %20 ]
  %26 = load i32, ptr @hf_iso14443_uid_cln, align 4
  %27 = tail call ptr @proto_tree_add_item(ptr noundef %2, i32 noundef %26, ptr noundef %0, i32 noundef %.016.i, i32 noundef %.0.i, i32 noundef 0)
  %28 = add nuw nsw i32 %.0.i, %.016.i
  %29 = load i32, ptr @hf_iso14443_bcc, align 4
  %30 = tail call ptr @proto_tree_add_item(ptr noundef %2, i32 noundef %29, ptr noundef %0, i32 noundef %28, i32 noundef 1, i32 noundef 0)
  %31 = add nuw nsw i32 %28, 1
  br i1 %.not, label %32, label %72

32:                                               ; preds = %dissect_iso14443_uid_part.exit
  %33 = load i32, ptr @hf_iso14443_crc, align 4
  %34 = load i32, ptr @hf_iso14443_crc_status, align 4
  %35 = tail call zeroext i16 @crc16_iso14443a_tvb_offset(ptr noundef %0, i32 noundef 0, i32 noundef %31)
  %36 = zext i16 %35 to i32
  %37 = tail call ptr @proto_tree_add_checksum(ptr noundef %2, ptr noundef %0, i32 noundef %31, i32 noundef %33, i32 noundef %34, ptr noundef nonnull @ei_iso14443_wrong_crc, ptr noundef %1, i32 noundef %36, i32 noundef -2147483648, i32 noundef 1)
  %38 = add nuw nsw i32 %28, 3
  br label %72

39:                                               ; preds = %4
  %40 = tail call i32 @tvb_reported_length_remaining(ptr noundef %0, i32 noundef 0)
  %41 = icmp slt i32 %40, 4
  br i1 %41, label %42, label %55

42:                                               ; preds = %39
  %43 = getelementptr inbounds nuw i8, ptr %1, i64 8
  %44 = load ptr, ptr %43, align 8
  tail call void @col_set_str(ptr noundef %44, i32 noundef 25, ptr noundef nonnull @.str.270)
  tail call void (ptr, ptr, ...) @proto_item_append_text(ptr noundef %7, ptr noundef nonnull @.str.271)
  %45 = load i32, ptr @hf_iso14443_4_compl_sak, align 4
  %46 = tail call ptr @proto_tree_add_item(ptr noundef %2, i32 noundef %45, ptr noundef %0, i32 noundef 0, i32 noundef 1, i32 noundef 0)
  %47 = load i32, ptr @hf_iso14443_uid_complete, align 4
  %48 = tail call ptr @proto_tree_add_item(ptr noundef %2, i32 noundef %47, ptr noundef %0, i32 noundef 0, i32 noundef 1, i32 noundef 0)
  br i1 %.not, label %49, label %72

49:                                               ; preds = %42
  %50 = load i32, ptr @hf_iso14443_crc, align 4
  %51 = load i32, ptr @hf_iso14443_crc_status, align 4
  %52 = tail call zeroext i16 @crc16_iso14443a_tvb_offset(ptr noundef %0, i32 noundef 0, i32 noundef 1)
  %53 = zext i16 %52 to i32
  %54 = tail call ptr @proto_tree_add_checksum(ptr noundef %2, ptr noundef %0, i32 noundef 1, i32 noundef %50, i32 noundef %51, ptr noundef nonnull @ei_iso14443_wrong_crc, ptr noundef %1, i32 noundef %53, i32 noundef -2147483648, i32 noundef 1)
  br label %72

55:                                               ; preds = %39
  %56 = tail call i32 @tvb_reported_length_remaining(ptr noundef %0, i32 noundef 0)
  %57 = icmp eq i32 %56, 5
  br i1 %57, label %58, label %72

58:                                               ; preds = %55
  %59 = getelementptr inbounds nuw i8, ptr %1, i64 8
  %60 = load ptr, ptr %59, align 8
  tail call void @col_set_str(ptr noundef %60, i32 noundef 25, ptr noundef nonnull @.str.272)
  %61 = tail call zeroext i8 @tvb_get_uint8(ptr noundef %0, i32 noundef 0)
  %62 = icmp eq i8 %61, -120
  br i1 %62, label %63, label %dissect_iso14443_uid_part.exit59

63:                                               ; preds = %58
  %64 = load i32, ptr @hf_iso14443_ct, align 4
  %65 = tail call ptr @proto_tree_add_item(ptr noundef %2, i32 noundef %64, ptr noundef %0, i32 noundef 0, i32 noundef 1, i32 noundef 0)
  br label %dissect_iso14443_uid_part.exit59

dissect_iso14443_uid_part.exit59:                 ; preds = %58, %63
  %.016.i57 = phi i32 [ 1, %63 ], [ 0, %58 ]
  %.0.i58 = phi i32 [ 3, %63 ], [ 4, %58 ]
  %66 = load i32, ptr @hf_iso14443_uid_cln, align 4
  %67 = tail call ptr @proto_tree_add_item(ptr noundef %2, i32 noundef %66, ptr noundef %0, i32 noundef %.016.i57, i32 noundef %.0.i58, i32 noundef 0)
  %68 = add nuw nsw i32 %.0.i58, %.016.i57
  %69 = load i32, ptr @hf_iso14443_bcc, align 4
  %70 = tail call ptr @proto_tree_add_item(ptr noundef %2, i32 noundef %69, ptr noundef %0, i32 noundef %68, i32 noundef 1, i32 noundef 0)
  %71 = add nuw nsw i32 %68, 1
  br label %72

72:                                               ; preds = %4, %55, %dissect_iso14443_uid_part.exit59, %42, %49, %19, %32, %dissect_iso14443_uid_part.exit
  %.0 = phi i32 [ 2, %19 ], [ %31, %dissect_iso14443_uid_part.exit ], [ %38, %32 ], [ 1, %42 ], [ 3, %49 ], [ %71, %dissect_iso14443_uid_part.exit59 ], [ 0, %55 ], [ 0, %4 ]
  ret i32 %.0
}